; Function Attrs: nounwind uwtable
define void @arkProcessError(ptr noundef readonly captures(address_is_null) %0, i32 noundef %1, i32 noundef %2, ptr noundef %3, ptr noundef %4, ptr noundef readonly captures(address_is_null) %5, ...) local_unnamed_addr #0 {
  %7 = alloca [1 x %struct.__va_list_tag], align 16
  call void @llvm.lifetime.start.p0(i64 24, ptr nonnull %7) #16
  call void @llvm.va_start.p0(ptr nonnull %7)
  %.not = icmp eq ptr %5, null
  br i1 %.not, label %12, label %8

8:                                                ; preds = %6
  %9 = call i32 @vsnprintf(ptr noundef null, i64 noundef 0, ptr noundef nonnull %5, ptr noundef nonnull %7) #16
  %10 = sext i32 %9 to i64
  %11 = add nsw i64 %10, 1
  br label %12

12:                                               ; preds = %8, %6
  %.0 = phi i64 [ %11, %8 ], [ 1, %6 ]
  call void @llvm.va_end.p0(ptr nonnull %7)
  %13 = call noalias ptr @malloc(i64 noundef %.0) #17
  call void @llvm.va_start.p0(ptr nonnull %7)
  %14 = call i32 @vsnprintf(ptr noundef %13, i64 noundef %.0, ptr noundef %5, ptr noundef nonnull %7) #16
  call void @llvm.va_end.p0(ptr nonnull %7)
  %15 = icmp eq ptr %0, null
  br i1 %15, label %16, label %17

16:                                               ; preds = %12
  call void (i32, ptr, ptr, ptr, i32, ...) @SUNGlobalFallbackErrHandler(i32 noundef %2, ptr noundef %3, ptr noundef %4, ptr noundef %13, i32 noundef %1) #16
  br label %40

17:                                               ; preds = %12
  %18 = icmp eq i32 %1, 99
  br i1 %18, label %19, label %28

19:                                               ; preds = %17
  %20 = call i64 @strlen(ptr noundef nonnull dereferenceable(1) %4) #18
  %21 = add i64 %20, 6
  %22 = call noalias ptr @malloc(i64 noundef %21) #17
  %23 = call i32 (ptr, i64, ptr, ...) @snprintf(ptr noundef %22, i64 noundef %21, ptr noundef nonnull @.str.140, ptr noundef nonnull %4, i32 noundef %2) #16
  %24 = load ptr, ptr %0, align 8, !tbaa !41
  %25 = getelementptr inbounds nuw i8, ptr %24, i64 16
  %26 = load ptr, ptr %25, align 8, !tbaa !42
  %27 = call i32 (ptr, i32, ptr, ptr, ptr, ...) @SUNLogger_QueueMsg(ptr noundef %26, i32 noundef 2, ptr noundef %22, ptr noundef %3, ptr noundef %13) #16
  call void @free(ptr noundef %22) #16
  br label %40

28:                                               ; preds = %17
  %29 = load ptr, ptr %0, align 8, !tbaa !41
  %.not.i = icmp eq ptr %29, null
  br i1 %.not.i, label %30, label %31

30:                                               ; preds = %28
  call void (i32, ptr, ptr, ptr, i32, ...) @SUNGlobalFallbackErrHandler(i32 noundef %2, ptr noundef %3, ptr noundef %4, ptr noundef %13, i32 noundef range(i32 100, 99) %1) #16
  br label %31

31:                                               ; preds = %30, %28
  %32 = getelementptr inbounds nuw i8, ptr %29, i64 28
  store i32 %1, ptr %32, align 4, !tbaa !47
  %33 = getelementptr inbounds nuw i8, ptr %29, i64 32
  %.019.i = load ptr, ptr %33, align 8, !tbaa !48
  %.not1820.i = icmp eq ptr %.019.i, null
  br i1 %.not1820.i, label %SUNHandleErrWithMsg.exit, label %.lr.ph.i

.lr.ph.i:                                         ; preds = %31, %.lr.ph.i
  %.021.i = phi ptr [ %.0.i, %.lr.ph.i ], [ %.019.i, %31 ]
  %34 = getelementptr inbounds nuw i8, ptr %.021.i, i64 8
  %35 = load ptr, ptr %34, align 8, !tbaa !49
  %36 = getelementptr inbounds nuw i8, ptr %.021.i, i64 16
  %37 = load ptr, ptr %36, align 8, !tbaa !51
  call void %35(i32 noundef %2, ptr noundef %3, ptr noundef %4, ptr noundef %13, i32 noundef range(i32 100, 99) %1, ptr noundef %37, ptr noundef %29) #16
  %.0.i = load ptr, ptr %.021.i, align 8, !tbaa !48
  %.not18.i = icmp eq ptr %.0.i, null
  br i1 %.not18.i, label %SUNHandleErrWithMsg.exit, label %.lr.ph.i

SUNHandleErrWithMsg.exit:                         ; preds = %.lr.ph.i, %31
  %38 = load ptr, ptr %0, align 8, !tbaa !41
  %39 = call i32 @SUNContext_GetLastError(ptr noundef %38) #16
  br label %40

40:                                               ; preds = %SUNHandleErrWithMsg.exit, %19, %16
  call void @free(ptr noundef %13) #16
  call void @llvm.lifetime.end.p0(i64 24, ptr nonnull %7) #16
  ret void
}